; Function Attrs: mustprogress nofree norecurse nosync nounwind willreturn memory(argmem: readwrite) uwtable
define void @_ZN3gmx23ExpandedEnsembleElement23registerLoggingCallbackEv(ptr dead_on_unwind noalias nocapture writable writeonly sret(%"class.std::optional.17") align 8 %0, ptr noundef nonnull align 8 dereferenceable(144) %1) unnamed_addr #3 align 2 personality ptr @__gxx_personality_v0 {
  %3 = getelementptr inbounds i8, ptr %1, i64 32
  %4 = load i8, ptr %3, align 8
  %5 = trunc i8 %4 to i1
  br i1 %5, label %6, label %11

6:                                                ; preds = %2
  %7 = getelementptr inbounds i8, ptr %0, i64 16
  %8 = getelementptr inbounds i8, ptr %0, i64 24
  %9 = getelementptr inbounds i8, ptr %0, i64 8
  store i64 0, ptr %9, align 8
  %10 = ptrtoint ptr %1 to i64
  store i64 %10, ptr %0, align 8
  store ptr @"_ZNSt17_Function_handlerIFvldEZN3gmx23ExpandedEnsembleElement23registerLoggingCallbackEvE3$_0E9_M_invokeERKSt9_Any_dataOlOd", ptr %8, align 8
  store ptr @"_ZNSt17_Function_handlerIFvldEZN3gmx23ExpandedEnsembleElement23registerLoggingCallbackEvE3$_0E10_M_managerERSt9_Any_dataRKS5_St18_Manager_operation", ptr %7, align 8
  br label %11

11:                                               ; preds = %2, %6
  %.sink = phi i8 [ 1, %6 ], [ 0, %2 ]
  %12 = getelementptr inbounds i8, ptr %0, i64 32
  store i8 %.sink, ptr %12, align 8
  ret void
}